; Function Attrs: null_pointer_is_valid sspstrong uwtable
define internal fastcc void @proto_mpeg_descriptor_dissect_short_smoothing_buffer(ptr noundef %0, i32 noundef %1, i32 noundef range(i32 1, 256) %2, ptr noundef %3) unnamed_addr #1 {
  %5 = load i32, ptr @hf_mpeg_descr_short_smoothing_buffer_sb_size, align 4
  %6 = tail call ptr @proto_tree_add_item(ptr noundef %3, i32 noundef %5, ptr noundef %0, i32 noundef %1, i32 noundef 1, i32 noundef 0)
  %7 = load i32, ptr @hf_mpeg_descr_short_smoothing_buffer_sb_leak_rate, align 4
  %8 = tail call ptr @proto_tree_add_item(ptr noundef %3, i32 noundef %7, ptr noundef %0, i32 noundef %1, i32 noundef 1, i32 noundef 0)
  %9 = icmp eq i32 %2, 1
  br i1 %9, label %15, label %10

10:                                               ; preds = %4
  %11 = add i32 %1, 1
  %12 = load i32, ptr @hf_mpeg_descr_short_smoothing_buffer_dvb_reserved, align 4
  %13 = add nsw i32 %2, -1
  %14 = tail call ptr @proto_tree_add_item(ptr noundef %3, i32 noundef %12, ptr noundef %0, i32 noundef %11, i32 noundef %13, i32 noundef 0)
  br label %15

15:                                               ; preds = %4, %10
  ret void
}